target datalayout = "e-m:e-p270:32:32-p271:32:32-p272:64:64-i64:64-i128:128-f80:128-n8:16:32:64-S128"
target triple = "x86_64-pc-linux-gnu"

%struct.PROPERTY_STRING_DATA = type { ptr, ptr, ptr, i32, i32, ptr, ptr }

@.str = private unnamed_addr constant [45 x i8] c"../openssl/crypto/property/property_string.c\00", align 1

; Function Attrs: inlinehint nounwind uwtable
define internal void @lh_PROPERTY_STRING_free(ptr noundef %0) #3 {
  %2 = alloca ptr, align 8
  store ptr %0, ptr %2, align 8, !tbaa !18
  %3 = load ptr, ptr %2, align 8, !tbaa !18
  call void @OPENSSL_LH_free(ptr noundef %3)
  ret void
}

; Function Attrs: inlinehint nounwind uwtable
define internal void @lh_PROPERTY_STRING_doall(ptr noundef %0, ptr noundef %1) #3 {
  %3 = alloca ptr, align 8
  %4 = alloca ptr, align 8
  store ptr %0, ptr %3, align 8, !tbaa !18
  store ptr %1, ptr %4, align 8, !tbaa !3
  %5 = load ptr, ptr %3, align 8, !tbaa !18
  %6 = load ptr, ptr %4, align 8, !tbaa !3
  call void @OPENSSL_LH_doall(ptr noundef %5, ptr noundef %6)
  ret void
}

; Function Attrs: inlinehint nounwind uwtable
define internal ptr @ossl_check_OPENSSL_CSTRING_sk_type(ptr noundef %0) #3 {
  %2 = alloca ptr, align 8
  store ptr %0, ptr %2, align 8, !tbaa !19
  %3 = load ptr, ptr %2, align 8, !tbaa !19
  ret ptr %3
}

; Function Attrs: nounwind uwtable
define internal void @property_table_free(ptr noundef %0) #0 {
  %2 = alloca ptr, align 8
  %3 = alloca ptr, align 8
  store ptr %0, ptr %2, align 8, !tbaa !16
  call void @llvm.lifetime.start.p0(i64 8, ptr %3) #6
  %4 = load ptr, ptr %2, align 8, !tbaa !16
  %5 = load ptr, ptr %4, align 8, !tbaa !18
  store ptr %5, ptr %3, align 8, !tbaa !18
  %6 = load ptr, ptr %3, align 8, !tbaa !18
  %7 = icmp ne ptr %6, null
  br i1 %7, label %8, label %12

8:                                                ; preds = %1
  %9 = load ptr, ptr %3, align 8, !tbaa !18
  call void @lh_PROPERTY_STRING_doall(ptr noundef %9, ptr noundef @property_free)
  %10 = load ptr, ptr %3, align 8, !tbaa !18
  call void @lh_PROPERTY_STRING_free(ptr noundef %10)
  %11 = load ptr, ptr %2, align 8, !tbaa !16
  store ptr null, ptr %11, align 8, !tbaa !18
  br label %12

12:                                               ; preds = %8, %1
  call void @llvm.lifetime.end.p0(i64 8, ptr %3) #6
  ret void
}

; Function Attrs: nounwind uwtable
define void @ossl_property_string_data_free(ptr noundef %0) #0 {
  %2 = alloca ptr, align 8
  %3 = alloca ptr, align 8
  %4 = alloca i32, align 4
  store ptr %0, ptr %2, align 8, !tbaa !3
  call void @llvm.lifetime.start.p0(i64 8, ptr %3) #6
  %5 = load ptr, ptr %2, align 8, !tbaa !3
  store ptr %5, ptr %3, align 8, !tbaa !3
  %6 = load ptr, ptr %3, align 8, !tbaa !3
  %7 = icmp eq ptr %6, null
  br i1 %7, label %8, label %9

8:                                                ; preds = %1
  store i32 1, ptr %4, align 4
  br label %34

9:                                                ; preds = %1
  %10 = load ptr, ptr %3, align 8, !tbaa !3
  %11 = getelementptr inbounds nuw %struct.PROPERTY_STRING_DATA, ptr %10, i32 0, i32 0
  %12 = load ptr, ptr %11, align 8, !tbaa !7
  call void @CRYPTO_THREAD_lock_free(ptr noundef %12)
  %13 = load ptr, ptr %3, align 8, !tbaa !3
  %14 = getelementptr inbounds nuw %struct.PROPERTY_STRING_DATA, ptr %13, i32 0, i32 1
  call void @property_table_free(ptr noundef %14)
  %15 = load ptr, ptr %3, align 8, !tbaa !3
  %16 = getelementptr inbounds nuw %struct.PROPERTY_STRING_DATA, ptr %15, i32 0, i32 2
  call void @property_table_free(ptr noundef %16)
  %17 = load ptr, ptr %3, align 8, !tbaa !3
  %18 = getelementptr inbounds nuw %struct.PROPERTY_STRING_DATA, ptr %17, i32 0, i32 5
  %19 = load ptr, ptr %18, align 8, !tbaa !12
  %20 = call ptr @ossl_check_OPENSSL_CSTRING_sk_type(ptr noundef %19)
  call void @OPENSSL_sk_free(ptr noundef %20)
  %21 = load ptr, ptr %3, align 8, !tbaa !3
  %22 = getelementptr inbounds nuw %struct.PROPERTY_STRING_DATA, ptr %21, i32 0, i32 6
  %23 = load ptr, ptr %22, align 8, !tbaa !13
  %24 = call ptr @ossl_check_OPENSSL_CSTRING_sk_type(ptr noundef %23)
  call void @OPENSSL_sk_free(ptr noundef %24)
  %25 = load ptr, ptr %3, align 8, !tbaa !3
  %26 = getelementptr inbounds nuw %struct.PROPERTY_STRING_DATA, ptr %25, i32 0, i32 6
  store ptr null, ptr %26, align 8, !tbaa !13
  %27 = load ptr, ptr %3, align 8, !tbaa !3
  %28 = getelementptr inbounds nuw %struct.PROPERTY_STRING_DATA, ptr %27, i32 0, i32 5
  store ptr null, ptr %28, align 8, !tbaa !12
  %29 = load ptr, ptr %3, align 8, !tbaa !3
  %30 = getelementptr inbounds nuw %struct.PROPERTY_STRING_DATA, ptr %29, i32 0, i32 4
  store i32 0, ptr %30, align 4, !tbaa !14
  %31 = load ptr, ptr %3, align 8, !tbaa !3
  %32 = getelementptr inbounds nuw %struct.PROPERTY_STRING_DATA, ptr %31, i32 0, i32 3
  store i32 0, ptr %32, align 8, !tbaa !15
  %33 = load ptr, ptr %3, align 8, !tbaa !3
  call void @CRYPTO_free(ptr noundef %33, ptr noundef @.str, i32 noundef 93)
  store i32 0, ptr %4, align 4
  br label %34

34:                                               ; preds = %9, %8
  call void @llvm.lifetime.end.p0(i64 8, ptr %3) #6
  %35 = load i32, ptr %4, align 4
  switch i32 %35, label %37 [
    i32 0, label %36
    i32 1, label %36
  ]

36:                                               ; preds = %34, %34
  ret void

37:                                               ; preds = %34
  unreachable
}