; Function Attrs: nounwind uwtable
define void @ossl_property_string_data_free(ptr noundef %0) local_unnamed_addr #0 {
  %2 = icmp eq ptr %0, null
  br i1 %2, label %16, label %3

3:                                                ; preds = %1
  %4 = load ptr, ptr %0, align 8, !tbaa !3
  tail call void @CRYPTO_THREAD_lock_free(ptr noundef %4) #8
  %5 = getelementptr inbounds nuw i8, ptr %0, i64 8
  %6 = load ptr, ptr %5, align 8, !tbaa !11
  %.not.i = icmp eq ptr %6, null
  br i1 %.not.i, label %property_table_free.exit, label %7

7:                                                ; preds = %3
  tail call void @OPENSSL_LH_doall(ptr noundef nonnull %6, ptr noundef nonnull @property_free) #8
  tail call void @OPENSSL_LH_free(ptr noundef nonnull %6) #8
  store ptr null, ptr %5, align 8, !tbaa !11
  br label %property_table_free.exit

property_table_free.exit:                         ; preds = %3, %7
  %8 = getelementptr inbounds nuw i8, ptr %0, i64 16
  %9 = load ptr, ptr %8, align 8, !tbaa !11
  %.not.i12 = icmp eq ptr %9, null
  br i1 %.not.i12, label %property_table_free.exit13, label %10

10:                                               ; preds = %property_table_free.exit
  tail call void @OPENSSL_LH_doall(ptr noundef nonnull %9, ptr noundef nonnull @property_free) #8
  tail call void @OPENSSL_LH_free(ptr noundef nonnull %9) #8
  store ptr null, ptr %8, align 8, !tbaa !11
  br label %property_table_free.exit13

property_table_free.exit13:                       ; preds = %property_table_free.exit, %10
  %11 = getelementptr inbounds nuw i8, ptr %0, i64 32
  %12 = load ptr, ptr %11, align 8, !tbaa !12
  tail call void @OPENSSL_sk_free(ptr noundef %12) #8
  %13 = getelementptr inbounds nuw i8, ptr %0, i64 40
  %14 = load ptr, ptr %13, align 8, !tbaa !13
  tail call void @OPENSSL_sk_free(ptr noundef %14) #8
  %15 = getelementptr inbounds nuw i8, ptr %0, i64 24
  tail call void @llvm.memset.p0.i64(ptr noundef nonnull align 8 dereferenceable(24) %15, i8 0, i64 24, i1 false)
  tail call void @CRYPTO_free(ptr noundef nonnull %0, ptr noundef nonnull @.str, i32 noundef 93) #8
  br label %16

16:                                               ; preds = %1, %property_table_free.exit13
  ret void
}